; Function Attrs: nounwind uwtable
define internal noundef i32 @ooxml_core_cb(i32 noundef %0, ptr nocapture readnone %1, ptr noundef %2, ptr nocapture readnone %3, i32 %4) #0 {
  tail call void (ptr, ...) @cli_dbgmsg(ptr noundef nonnull @.str.66) #6
  %6 = tail call fastcc i32 @ooxml_parse_document(i32 noundef %0, ptr noundef %2)
  switch i32 %6, label %11 [
    i32 27, label %.sink.split
    i32 26, label %7
  ]

7:                                                ; preds = %5
  br label %.sink.split

.sink.split:                                      ; preds = %5, %7
  %.str.68.sink = phi ptr [ @.str.68, %7 ], [ @.str.67, %5 ]
  %8 = getelementptr inbounds i8, ptr %2, i64 160
  %9 = load ptr, ptr %8, align 8
  %10 = tail call i32 @cli_json_parse_error(ptr noundef %9, ptr noundef nonnull %.str.68.sink) #6
  br label %11

11:                                               ; preds = %.sink.split, %5
  ret i32 %6
}